Certificate:
    Data:
        Version: 3 (0x2)
        Serial Number: 1 (0x1)
        Signature Algorithm: sha1WithRSAEncryption
        Issuer: C=AT, ST=AT, L=Linz, O=Siegel Rnd, OU=UA, CN=Fort-Funston CA/emailAddress=me@myhost.mydomain
        Validity
            Not Before: Apr 13 11:31:06 2011 GMT
            Not After : Apr 10 11:31:06 2021 GMT
        Subject: C=AT, ST=CA, L=Linz, O=Fort-Funston, CN=server/emailAddress=me@myhost.mydomain
        Subject Public Key Info:
            Public Key Algorithm: rsaEncryption
                Public-Key: (1024 bit)
                Modulus:
                    00:c2:88:3c:49:20:0e:e8:fc:c0:e8:ce:0c:25:9e:
                    22:e6:50:19:d2:59:c1:37:0a:34:66:c7:52:e0:f1:
                    3c:f2:52:1c:e3:e8:a0:80:de:d8:51:8d:5a:70:88:
                    42:4c:47:2e:e1:64:bf:44:ae:08:4a:93:7c:2d:6b:
                    f9:a7:cf:90:99:87:a6:04:63:0d:db:f4:9f:a7:28:
                    13:63:33:02:59:2c:d3:6c:2a:48:73:6f:1b:ab:55:
                    94:c7:cc:74:b2:a6:73:bd:e2:0f:96:52:2e:77:f3:
                    32:01:33:ef:bf:f0:53:74:9b:3a:10:52:71:e1:ab:
                    5e:4f:35:42:74:2b:cf:ce:b7
                Exponent: 65537 (0x10001)
        X509v3 extensions:
            X509v3 Basic Constraints: 
                CA:FALSE
            Netscape Cert Type: 
                SSL Server
            Netscape Comment: 
                Easy-RSA Generated Server Certificate
            X509v3 Subject Key Identifier: 
                7E:67:C1:51:C5:20:8A:F5:68:97:A7:F5:4B:B9:87:39:6E:93:98:61
            X509v3 Authority Key Identifier: 
                keyid:D1:BB:00:70:A2:53:28:09:E0:3C:38:33:E1:11:8A:C5:71:13:6B:18
                DirName:/C=AT/ST=AT/L=Linz/O=Siegel Rnd/OU=UA/CN=Fort-Funston CA/emailAddress=me@myhost.mydomain
                serial:F5:C4:46:F2:ED:32:20:7E

            X509v3 Extended Key Usage: 
                TLS Web Server Authentication
            X509v3 Key Usage: 
                Digital Signature, Key Encipherment
    Signature Algorithm: sha1WithRSAEncryption
        b3:8e:d6:61:72:32:d4:6f:36:b8:49:61:04:05:5e:6e:f7:11:
        a1:e9:08:8a:44:0e:97:bc:26:78:2b:e9:89:f6:88:2a:8b:30:
        b7:52:7c:1b:95:7c:a0:b2:9a:67:ef:0a:a4:6f:4f:d4:5f:fa:
        39:4f:12:b0:df:68:e6:c4:e9:59:4c:87:16:1f:10:3a:2e:62:
        aa:4f:10:cf:2e:d7:d5:29:c5:94:69:0f:b4:86:98:08:d3:6e:
        ac:c0:e5:81:f8:ac:81:8e:ec:8b:bd:e6:b4:ae:5f:67:89:04:
        58:f6:6d:09:a0:cf:90:96:38:10:1a:be:22:fa:b1:07:92:10:
        5c:c5
-----BEGIN CERTIFICATE-----
MIIDzjCCAzegAwIBAgIBATANBgkqhkiG9w0BAQUFADCBiDELMAkGA1UEBhMCQVQx
CzAJBgNVBAgTAkFUMQ0wCwYDVQQHEwRMaW56MRMwEQYDVQQKEwpTaWVnZWwgUm5k
MQswCQYDVQQLEwJVQTEYMBYGA1UEAxMPRm9ydC1GdW5zdG9uIENBMSEwHwYJKoZI
hvcNAQkBFhJtZUBteWhvc3QubXlkb21haW4wHhcNMTEwNDEzMTEzMTA2WhcNMjEw
NDEwMTEzMTA2WjB0MQswCQYDVQQGEwJBVDELMAkGA1UECBMCQ0ExDTALBgNVBAcT
BExpbnoxFTATBgNVBAoTDEZvcnQtRnVuc3RvbjEPMA0GA1UEAxMGc2VydmVyMSEw
HwYJKoZIhvcNAQkBFhJtZUBteWhvc3QubXlkb21haW4wgZ8wDQYJKoZIhvcNAQEB
BQADgY0AMIGJAoGBAMKIPEkgDuj8wOjODCWeIuZQGdJZwTcKNGbHUuDxPPJSHOPo
oIDe2FGNWnCIQkxHLuFkv0SuCEqTfC1r+afPkJmHpgRjDdv0n6coE2MzAlks02wq
SHNvG6tVlMfMdLKmc73iD5ZSLnfzMgEz77/wU3SbOhBSceGrXk81QnQrz863AgMB
AAGjggFZMIIBVTAJBgNVHRMEAjAAMBEGCWCGSAGG+EIBAQQEAwIGQDA0BglghkgB
hvhCAQ0EJxYlRWFzeS1SU0EgR2VuZXJhdGVkIFNlcnZlciBDZXJ0aWZpY2F0ZTAd
BgNVHQ4EFgQUfmfBUcUgivVol6f1S7mHOW6TmGEwgb0GA1UdIwSBtTCBsoAU0bsA
cKJTKAngPDgz4RGKxXETaxihgY6kgYswgYgxCzAJBgNVBAYTAkFUMQswCQYDVQQI
EwJBVDENMAsGA1UEBxMETGluejETMBEGA1UEChMKU2llZ2VsIFJuZDELMAkGA1UE
CxMCVUExGDAWBgNVBAMTD0ZvcnQtRnVuc3RvbiBDQTEhMB8GCSqGSIb3DQEJARYS
bWVAbXlob3N0Lm15ZG9tYWluggkA9cRG8u0yIH4wEwYDVR0lBAwwCgYIKwYBBQUH
AwEwCwYDVR0PBAQDAgWgMA0GCSqGSIb3DQEBBQUAA4GBALOO1mFyMtRvNrhJYQQF
Xm73EaHpCIpEDpe8Jngr6Yn2iCqLMLdSfBuVfKCymmfvCqRvT9Rf+jlPErDfaObE
6VlMhxYfEDouYqpPEM8u19UpxZRpD7SGmAjTbqzA5YH4rIGO7Iu95rSuX2eJBFj2
bQmgz5CWOBAaviL6sQeSEFzF
-----END CERTIFICATE-----
