Certificate:
    Data:
        Version: 3 (0x2)
        Serial Number: 2 (0x2)
        Signature Algorithm: sha1WithRSAEncryption
        Issuer: C=AT, ST=AT, L=Linz, O=Siegel Rnd, OU=UA, CN=Fort-Funston CA/emailAddress=me@myhost.mydomain
        Validity
            Not Before: Apr 13 11:31:53 2011 GMT
            Not After : Apr 10 11:31:53 2021 GMT
        Subject: C=AT, ST=CA, L=Linz, O=Fort-Funston, CN=uav1/emailAddress=me@myhost.mydomain
        Subject Public Key Info:
            Public Key Algorithm: rsaEncryption
                Public-Key: (1024 bit)
                Modulus:
                    00:9e:b4:92:9d:f8:85:e7:4f:5e:13:0c:71:02:88:
                    e6:44:b3:75:73:b4:47:00:0f:90:06:0b:91:a2:cd:
                    4e:87:63:31:90:2d:92:f9:b0:a6:f4:67:a7:dc:cf:
                    ea:ac:93:d0:74:7d:fb:d7:02:d9:b1:58:1e:3e:38:
                    2b:a8:66:8e:52:10:69:4e:cc:67:73:f8:f8:d0:dd:
                    7c:79:a9:07:7a:d3:cd:48:6a:c9:7c:72:54:90:e5:
                    7f:c3:8e:7d:18:42:bc:1a:17:50:bf:c7:0f:84:56:
                    24:61:20:df:b7:88:14:35:73:5b:31:83:2e:74:0c:
                    ef:54:c5:14:48:cf:7e:29:bd
                Exponent: 65537 (0x10001)
        X509v3 extensions:
            X509v3 Basic Constraints: 
                CA:FALSE
            Netscape Comment: 
                Easy-RSA Generated Certificate
            X509v3 Subject Key Identifier: 
                7C:56:FE:CD:4B:9B:45:CA:BB:8F:18:B1:AF:A2:0F:DD:C0:AE:5D:FC
            X509v3 Authority Key Identifier: 
                keyid:D1:BB:00:70:A2:53:28:09:E0:3C:38:33:E1:11:8A:C5:71:13:6B:18
                DirName:/C=AT/ST=AT/L=Linz/O=Siegel Rnd/OU=UA/CN=Fort-Funston CA/emailAddress=me@myhost.mydomain
                serial:F5:C4:46:F2:ED:32:20:7E

            X509v3 Extended Key Usage: 
                TLS Web Client Authentication
            X509v3 Key Usage: 
                Digital Signature
    Signature Algorithm: sha1WithRSAEncryption
        0c:9a:45:6b:32:4d:05:ce:45:c9:a5:a4:43:dd:08:4d:0f:56:
        60:ea:57:52:0f:47:20:ed:bc:de:77:59:fc:5c:58:a7:13:56:
        dc:7f:83:f4:a8:02:59:be:6e:d5:4a:78:8c:dd:7c:2b:f8:38:
        aa:70:36:37:ba:28:86:de:5a:c0:98:a3:59:bb:09:51:9e:44:
        e0:44:72:c3:ca:39:ac:89:32:a0:57:03:3b:c7:55:e7:4e:2f:
        e3:6c:b6:e0:7a:11:6a:94:fb:ce:6d:78:29:79:12:bd:d7:42:
        16:1f:1b:73:86:9a:9e:4f:1f:88:55:a9:7a:4a:24:8a:f0:b5:
        4a:50
-----BEGIN CERTIFICATE-----
MIIDsjCCAxugAwIBAgIBAjANBgkqhkiG9w0BAQUFADCBiDELMAkGA1UEBhMCQVQx
CzAJBgNVBAgTAkFUMQ0wCwYDVQQHEwRMaW56MRMwEQYDVQQKEwpTaWVnZWwgUm5k
MQswCQYDVQQLEwJVQTEYMBYGA1UEAxMPRm9ydC1GdW5zdG9uIENBMSEwHwYJKoZI
hvcNAQkBFhJtZUBteWhvc3QubXlkb21haW4wHhcNMTEwNDEzMTEzMTUzWhcNMjEw
NDEwMTEzMTUzWjByMQswCQYDVQQGEwJBVDELMAkGA1UECBMCQ0ExDTALBgNVBAcT
BExpbnoxFTATBgNVBAoTDEZvcnQtRnVuc3RvbjENMAsGA1UEAxMEdWF2MTEhMB8G
CSqGSIb3DQEJARYSbWVAbXlob3N0Lm15ZG9tYWluMIGfMA0GCSqGSIb3DQEBAQUA
A4GNADCBiQKBgQCetJKd+IXnT14TDHECiOZEs3VztEcAD5AGC5GizU6HYzGQLZL5
sKb0Z6fcz+qsk9B0ffvXAtmxWB4+OCuoZo5SEGlOzGdz+PjQ3Xx5qQd6081Iasl8
clSQ5X/Djn0YQrwaF1C/xw+EViRhIN+3iBQ1c1sxgy50DO9UxRRIz34pvQIDAQAB
o4IBPzCCATswCQYDVR0TBAIwADAtBglghkgBhvhCAQ0EIBYeRWFzeS1SU0EgR2Vu
ZXJhdGVkIENlcnRpZmljYXRlMB0GA1UdDgQWBBR8Vv7NS5tFyruPGLGvog/dwK5d
/DCBvQYDVR0jBIG1MIGygBTRuwBwolMoCeA8ODPhEYrFcRNrGKGBjqSBizCBiDEL
MAkGA1UEBhMCQVQxCzAJBgNVBAgTAkFUMQ0wCwYDVQQHEwRMaW56MRMwEQYDVQQK
EwpTaWVnZWwgUm5kMQswCQYDVQQLEwJVQTEYMBYGA1UEAxMPRm9ydC1GdW5zdG9u
IENBMSEwHwYJKoZIhvcNAQkBFhJtZUBteWhvc3QubXlkb21haW6CCQD1xEby7TIg
fjATBgNVHSUEDDAKBggrBgEFBQcDAjALBgNVHQ8EBAMCB4AwDQYJKoZIhvcNAQEF
BQADgYEADJpFazJNBc5FyaWkQ90ITQ9WYOpXUg9HIO283ndZ/FxYpxNW3H+D9KgC
Wb5u1Up4jN18K/g4qnA2N7ooht5awJijWbsJUZ5E4ERyw8o5rIkyoFcDO8dV504v
42y24HoRapT7zm14KXkSvddCFh8bc4aank8fiFWpekokivC1SlA=
-----END CERTIFICATE-----
