Certificate:
    Data:
        Version: 3 (0x2)
        Serial Number: 3 (0x3)
        Signature Algorithm: sha1WithRSAEncryption
        Issuer: C=AT, ST=AT, L=Linz, O=Siegel Rnd, OU=UA, CN=Fort-Funston CA/emailAddress=me@myhost.mydomain
        Validity
            Not Before: Apr 13 11:32:07 2011 GMT
            Not After : Apr 10 11:32:07 2021 GMT
        Subject: C=AT, ST=CA, L=Linz, O=Fort-Funston, CN=uav2/emailAddress=me@myhost.mydomain
        Subject Public Key Info:
            Public Key Algorithm: rsaEncryption
                Public-Key: (1024 bit)
                Modulus:
                    00:c5:d1:d5:db:8e:8c:55:4c:aa:8d:51:4c:fa:5d:
                    33:5a:a1:18:c2:8b:2f:d6:38:61:b5:c2:21:d0:27:
                    34:47:82:48:00:88:a2:fb:ae:2f:a0:46:6a:2a:2f:
                    d2:c6:3f:d8:de:a9:59:c2:55:1f:65:c2:e2:97:5b:
                    bd:2a:e4:08:1a:42:49:39:aa:ea:db:45:bd:e4:50:
                    75:7b:c5:ac:1d:d6:e3:15:eb:30:46:7c:4d:48:5b:
                    48:98:b9:60:78:f1:0b:6f:76:d3:0a:3b:fb:e6:4a:
                    11:ae:31:19:f2:89:a2:77:72:be:a8:2d:e9:cd:71:
                    16:7d:74:0a:a4:2f:50:68:09
                Exponent: 65537 (0x10001)
        X509v3 extensions:
            X509v3 Basic Constraints: 
                CA:FALSE
            Netscape Comment: 
                Easy-RSA Generated Certificate
            X509v3 Subject Key Identifier: 
                21:92:E0:54:08:BB:A8:FD:F3:AC:8E:AE:8E:D7:46:28:84:25:C5:34
            X509v3 Authority Key Identifier: 
                keyid:D1:BB:00:70:A2:53:28:09:E0:3C:38:33:E1:11:8A:C5:71:13:6B:18
                DirName:/C=AT/ST=AT/L=Linz/O=Siegel Rnd/OU=UA/CN=Fort-Funston CA/emailAddress=me@myhost.mydomain
                serial:F5:C4:46:F2:ED:32:20:7E

            X509v3 Extended Key Usage: 
                TLS Web Client Authentication
            X509v3 Key Usage: 
                Digital Signature
    Signature Algorithm: sha1WithRSAEncryption
        1f:81:b6:85:cf:ed:43:a4:b1:1c:90:f3:33:6f:99:60:06:33:
        54:97:6f:6c:09:2c:8e:d1:f7:9a:b8:07:ce:b0:06:75:63:b2:
        21:12:56:3c:10:6f:12:54:88:99:88:dd:35:02:ad:20:f1:34:
        91:ac:3c:c2:2b:1a:bf:10:ce:da:ee:f9:d6:64:1c:91:d1:d1:
        ec:2a:5b:31:4b:bb:9e:78:89:bf:5d:a4:e6:91:10:e5:51:7b:
        4e:41:56:cc:66:e6:8f:20:63:f7:e2:b6:68:cd:d1:de:df:22:
        c5:87:a2:9c:25:ff:13:7b:1e:0f:4d:61:2d:47:6f:8e:fa:38:
        a6:2c
-----BEGIN CERTIFICATE-----
MIIDsjCCAxugAwIBAgIBAzANBgkqhkiG9w0BAQUFADCBiDELMAkGA1UEBhMCQVQx
CzAJBgNVBAgTAkFUMQ0wCwYDVQQHEwRMaW56MRMwEQYDVQQKEwpTaWVnZWwgUm5k
MQswCQYDVQQLEwJVQTEYMBYGA1UEAxMPRm9ydC1GdW5zdG9uIENBMSEwHwYJKoZI
hvcNAQkBFhJtZUBteWhvc3QubXlkb21haW4wHhcNMTEwNDEzMTEzMjA3WhcNMjEw
NDEwMTEzMjA3WjByMQswCQYDVQQGEwJBVDELMAkGA1UECBMCQ0ExDTALBgNVBAcT
BExpbnoxFTATBgNVBAoTDEZvcnQtRnVuc3RvbjENMAsGA1UEAxMEdWF2MjEhMB8G
CSqGSIb3DQEJARYSbWVAbXlob3N0Lm15ZG9tYWluMIGfMA0GCSqGSIb3DQEBAQUA
A4GNADCBiQKBgQDF0dXbjoxVTKqNUUz6XTNaoRjCiy/WOGG1wiHQJzRHgkgAiKL7
ri+gRmoqL9LGP9jeqVnCVR9lwuKXW70q5AgaQkk5qurbRb3kUHV7xawd1uMV6zBG
fE1IW0iYuWB48QtvdtMKO/vmShGuMRnyiaJ3cr6oLenNcRZ9dAqkL1BoCQIDAQAB
o4IBPzCCATswCQYDVR0TBAIwADAtBglghkgBhvhCAQ0EIBYeRWFzeS1SU0EgR2Vu
ZXJhdGVkIENlcnRpZmljYXRlMB0GA1UdDgQWBBQhkuBUCLuo/fOsjq6O10YohCXF
NDCBvQYDVR0jBIG1MIGygBTRuwBwolMoCeA8ODPhEYrFcRNrGKGBjqSBizCBiDEL
MAkGA1UEBhMCQVQxCzAJBgNVBAgTAkFUMQ0wCwYDVQQHEwRMaW56MRMwEQYDVQQK
EwpTaWVnZWwgUm5kMQswCQYDVQQLEwJVQTEYMBYGA1UEAxMPRm9ydC1GdW5zdG9u
IENBMSEwHwYJKoZIhvcNAQkBFhJtZUBteWhvc3QubXlkb21haW6CCQD1xEby7TIg
fjATBgNVHSUEDDAKBggrBgEFBQcDAjALBgNVHQ8EBAMCB4AwDQYJKoZIhvcNAQEF
BQADgYEAH4G2hc/tQ6SxHJDzM2+ZYAYzVJdvbAksjtH3mrgHzrAGdWOyIRJWPBBv
ElSImYjdNQKtIPE0kaw8wisavxDO2u751mQckdHR7CpbMUu7nniJv12k5pEQ5VF7
TkFWzGbmjyBj9+K2aM3R3t8ixYeinCX/E3seD01hLUdvjvo4piw=
-----END CERTIFICATE-----
