Certificate:
    Data:
        Version: 3 (0x2)
        Serial Number: 1 (0x1)
        Signature Algorithm: sha1WithRSAEncryption
        Issuer: C=AT, ST=Austria, L=Linz, O=backstop, OU=SPS, CN=BS/name=SP/emailAddress=SP@gmx.at
        Validity
            Not Before: Oct 24 19:00:18 2010 GMT
            Not After : Oct 21 19:00:18 2020 GMT
        Subject: C=AT, ST=Austia, L=Linz, O=backstop, OU=SPS, CN=server/name=SP/emailAddress=sp@gmx.at
        Subject Public Key Info:
            Public Key Algorithm: rsaEncryption
            RSA Public Key: (1024 bit)
                Modulus (1024 bit):
                    00:b8:08:d5:87:8e:7f:ad:dd:b3:f9:05:8e:c5:c8:
                    f3:e1:55:84:a4:7c:98:a4:31:f9:33:ea:71:af:7f:
                    1d:cc:02:b6:51:47:51:08:31:c5:c4:5f:12:2e:05:
                    9e:2d:cb:6b:a0:19:1f:c0:08:a7:74:1e:24:29:fc:
                    91:b9:a3:d5:86:9c:c4:08:2e:d3:b7:b9:78:61:94:
                    52:36:a3:f2:76:af:9d:17:76:6f:4a:cd:65:9d:54:
                    93:18:e8:72:b8:63:88:a7:9f:7b:84:0e:c1:33:29:
                    7a:8d:8c:c0:9e:94:67:e5:b0:6d:a2:77:4e:3d:72:
                    cb:52:12:31:19:87:ce:82:11
                Exponent: 65537 (0x10001)
        X509v3 extensions:
            X509v3 Basic Constraints: 
                CA:FALSE
            Netscape Cert Type: 
                SSL Server
            Netscape Comment: 
                Easy-RSA Generated Server Certificate
            X509v3 Subject Key Identifier: 
                90:87:8A:5D:60:14:FC:EC:38:A3:B3:F9:DA:31:58:79:F8:A5:60:6E
            X509v3 Authority Key Identifier: 
                keyid:E0:B0:B5:82:E0:BC:DD:A9:C2:B7:8C:29:B9:41:74:FF:A0:F5:7D:5F
                DirName:/C=AT/ST=Austria/L=Linz/O=backstop/OU=SPS/CN=BS/name=SP/emailAddress=SP@gmx.at
                serial:C9:E1:96:23:6D:8D:B9:F5

            X509v3 Extended Key Usage: 
                TLS Web Server Authentication
            X509v3 Key Usage: 
                Digital Signature, Key Encipherment
    Signature Algorithm: sha1WithRSAEncryption
        80:5c:4e:3a:f0:77:89:cf:91:f2:ba:d3:08:48:67:f2:f6:71:
        cd:05:9c:7f:57:a0:4d:d3:c9:39:84:02:17:4c:c8:2c:bc:47:
        7a:ba:5c:f1:ed:29:00:3d:0c:2f:c9:69:27:08:a1:39:63:c4:
        bf:47:49:56:44:06:a1:05:32:28:8f:eb:83:f3:3e:2f:c0:95:
        61:3a:90:7c:bb:23:76:ce:e5:a9:1a:58:13:f5:fa:b2:7b:c5:
        1b:ba:ca:bd:20:cc:d2:78:77:f9:a9:0e:c3:e3:ac:89:33:bb:
        be:2b:f0:37:27:14:7b:87:3b:89:85:b2:44:48:54:eb:65:58:
        a6:c9
-----BEGIN CERTIFICATE-----
MIID1zCCA0CgAwIBAgIBATANBgkqhkiG9w0BAQUFADCBgzELMAkGA1UEBhMCQVQx
EDAOBgNVBAgTB0F1c3RyaWExDTALBgNVBAcTBExpbnoxETAPBgNVBAoTCGJhY2tz
dG9wMQwwCgYDVQQLEwNTUFMxCzAJBgNVBAMTAkJTMQswCQYDVQQpEwJTUDEYMBYG
CSqGSIb3DQEJARYJU1BAZ214LmF0MB4XDTEwMTAyNDE5MDAxOFoXDTIwMTAyMTE5
MDAxOFowgYYxCzAJBgNVBAYTAkFUMQ8wDQYDVQQIEwZBdXN0aWExDTALBgNVBAcT
BExpbnoxETAPBgNVBAoTCGJhY2tzdG9wMQwwCgYDVQQLEwNTUFMxDzANBgNVBAMT
BnNlcnZlcjELMAkGA1UEKRMCU1AxGDAWBgkqhkiG9w0BCQEWCXNwQGdteC5hdDCB
nzANBgkqhkiG9w0BAQEFAAOBjQAwgYkCgYEAuAjVh45/rd2z+QWOxcjz4VWEpHyY
pDH5M+pxr38dzAK2UUdRCDHFxF8SLgWeLctroBkfwAindB4kKfyRuaPVhpzECC7T
t7l4YZRSNqPydq+dF3ZvSs1lnVSTGOhyuGOIp597hA7BMyl6jYzAnpRn5bBtondO
PXLLUhIxGYfOghECAwEAAaOCAVQwggFQMAkGA1UdEwQCMAAwEQYJYIZIAYb4QgEB
BAQDAgZAMDQGCWCGSAGG+EIBDQQnFiVFYXN5LVJTQSBHZW5lcmF0ZWQgU2VydmVy
IENlcnRpZmljYXRlMB0GA1UdDgQWBBSQh4pdYBT87Dijs/naMVh5+KVgbjCBuAYD
VR0jBIGwMIGtgBTgsLWC4LzdqcK3jCm5QXT/oPV9X6GBiaSBhjCBgzELMAkGA1UE
BhMCQVQxEDAOBgNVBAgTB0F1c3RyaWExDTALBgNVBAcTBExpbnoxETAPBgNVBAoT
CGJhY2tzdG9wMQwwCgYDVQQLEwNTUFMxCzAJBgNVBAMTAkJTMQswCQYDVQQpEwJT
UDEYMBYGCSqGSIb3DQEJARYJU1BAZ214LmF0ggkAyeGWI22NufUwEwYDVR0lBAww
CgYIKwYBBQUHAwEwCwYDVR0PBAQDAgWgMA0GCSqGSIb3DQEBBQUAA4GBAIBcTjrw
d4nPkfK60whIZ/L2cc0FnH9XoE3TyTmEAhdMyCy8R3q6XPHtKQA9DC/JaScIoTlj
xL9HSVZEBqEFMiiP64PzPi/AlWE6kHy7I3bO5akaWBP1+rJ7xRu6yr0gzNJ4d/mp
DsPjrIkzu74r8DcnFHuHO4mFskRIVOtlWKbJ
-----END CERTIFICATE-----
