Certificate:
    Data:
        Version: 3 (0x2)
        Serial Number: 2 (0x2)
        Signature Algorithm: sha1WithRSAEncryption
        Issuer: C=AT, ST=Austria, L=Linz, O=backstop, OU=SPS, CN=BS/name=SP/emailAddress=SP@gmx.at
        Validity
            Not Before: Oct 24 19:01:44 2010 GMT
            Not After : Oct 21 19:01:44 2020 GMT
        Subject: C=AT, ST=Austria, L=Linz, O=backstop, OU=SPS, CN=client1/name=Siegel/emailAddress=siegelpeter@gmx.at
        Subject Public Key Info:
            Public Key Algorithm: rsaEncryption
            RSA Public Key: (1024 bit)
                Modulus (1024 bit):
                    00:bf:f1:2c:87:d9:33:df:46:2a:b9:38:04:ac:22:
                    a0:b1:ef:7d:c0:3b:68:3c:69:32:9d:ff:46:aa:37:
                    58:76:6a:42:a4:c5:8f:de:b4:84:01:d4:32:c5:81:
                    33:f2:de:d4:16:b0:bb:37:87:3a:dc:1a:ce:67:08:
                    d4:b8:dd:96:fa:fe:75:07:22:96:c1:e0:f6:cf:3f:
                    98:59:4f:b2:96:5c:06:38:f2:11:58:05:26:dc:6b:
                    3e:f0:22:69:55:70:da:ee:21:5a:f3:ea:eb:cb:c7:
                    3e:21:07:70:ed:b4:6c:15:ec:2b:c0:81:98:21:0e:
                    b0:d4:69:c9:aa:2c:eb:42:d9
                Exponent: 65537 (0x10001)
        X509v3 extensions:
            X509v3 Basic Constraints: 
                CA:FALSE
            Netscape Comment: 
                Easy-RSA Generated Certificate
            X509v3 Subject Key Identifier: 
                EA:B2:71:96:2A:D4:3F:42:17:A1:45:23:3B:01:E9:D0:5F:2F:AD:91
            X509v3 Authority Key Identifier: 
                keyid:E0:B0:B5:82:E0:BC:DD:A9:C2:B7:8C:29:B9:41:74:FF:A0:F5:7D:5F
                DirName:/C=AT/ST=Austria/L=Linz/O=backstop/OU=SPS/CN=BS/name=SP/emailAddress=SP@gmx.at
                serial:C9:E1:96:23:6D:8D:B9:F5

            X509v3 Extended Key Usage: 
                TLS Web Client Authentication
            X509v3 Key Usage: 
                Digital Signature
    Signature Algorithm: sha1WithRSAEncryption
        2f:d2:7b:d8:15:6c:5b:72:d5:f9:43:f6:4c:08:7b:62:04:7f:
        05:24:70:27:05:31:bf:7a:33:c2:29:dc:d6:b7:de:0d:cb:20:
        a0:34:28:c7:34:31:30:a8:c4:f8:22:a9:b7:54:22:71:04:75:
        ca:86:e6:56:86:7e:cc:48:e8:f8:bf:74:29:a5:7d:7a:80:e6:
        8a:b5:dd:20:e2:58:94:11:80:d8:ee:ec:df:47:92:a5:2e:d8:
        23:59:28:f9:ad:32:7f:34:a5:f5:42:39:8f:e9:ab:cb:6a:56:
        57:8a:32:c1:1d:c7:71:51:e2:11:f4:35:7f:a7:21:fa:a4:d4:
        13:d6
-----BEGIN CERTIFICATE-----
MIIDzDCCAzWgAwIBAgIBAjANBgkqhkiG9w0BAQUFADCBgzELMAkGA1UEBhMCQVQx
EDAOBgNVBAgTB0F1c3RyaWExDTALBgNVBAcTBExpbnoxETAPBgNVBAoTCGJhY2tz
dG9wMQwwCgYDVQQLEwNTUFMxCzAJBgNVBAMTAkJTMQswCQYDVQQpEwJTUDEYMBYG
CSqGSIb3DQEJARYJU1BAZ214LmF0MB4XDTEwMTAyNDE5MDE0NFoXDTIwMTAyMTE5
MDE0NFowgZUxCzAJBgNVBAYTAkFUMRAwDgYDVQQIEwdBdXN0cmlhMQ0wCwYDVQQH
EwRMaW56MREwDwYDVQQKEwhiYWNrc3RvcDEMMAoGA1UECxMDU1BTMRAwDgYDVQQD
EwdjbGllbnQxMQ8wDQYDVQQpEwZTaWVnZWwxITAfBgkqhkiG9w0BCQEWEnNpZWdl
bHBldGVyQGdteC5hdDCBnzANBgkqhkiG9w0BAQEFAAOBjQAwgYkCgYEAv/Esh9kz
30YquTgErCKgse99wDtoPGkynf9GqjdYdmpCpMWP3rSEAdQyxYEz8t7UFrC7N4c6
3BrOZwjUuN2W+v51ByKWweD2zz+YWU+yllwGOPIRWAUm3Gs+8CJpVXDa7iFa8+rr
y8c+IQdw7bRsFewrwIGYIQ6w1GnJqizrQtkCAwEAAaOCATowggE2MAkGA1UdEwQC
MAAwLQYJYIZIAYb4QgENBCAWHkVhc3ktUlNBIEdlbmVyYXRlZCBDZXJ0aWZpY2F0
ZTAdBgNVHQ4EFgQU6rJxlirUP0IXoUUjOwHp0F8vrZEwgbgGA1UdIwSBsDCBrYAU
4LC1guC83anCt4wpuUF0/6D1fV+hgYmkgYYwgYMxCzAJBgNVBAYTAkFUMRAwDgYD
VQQIEwdBdXN0cmlhMQ0wCwYDVQQHEwRMaW56MREwDwYDVQQKEwhiYWNrc3RvcDEM
MAoGA1UECxMDU1BTMQswCQYDVQQDEwJCUzELMAkGA1UEKRMCU1AxGDAWBgkqhkiG
9w0BCQEWCVNQQGdteC5hdIIJAMnhliNtjbn1MBMGA1UdJQQMMAoGCCsGAQUFBwMC
MAsGA1UdDwQEAwIHgDANBgkqhkiG9w0BAQUFAAOBgQAv0nvYFWxbctX5Q/ZMCHti
BH8FJHAnBTG/ejPCKdzWt94NyyCgNCjHNDEwqMT4Iqm3VCJxBHXKhuZWhn7MSOj4
v3QppX16gOaKtd0g4liUEYDY7uzfR5KlLtgjWSj5rTJ/NKX1QjmP6avLalZXijLB
HcdxUeIR9DV/pyH6pNQT1g==
-----END CERTIFICATE-----
