Certificate:
    Data:
        Version: 3 (0x2)
        Serial Number: 3 (0x3)
        Signature Algorithm: sha1WithRSAEncryption
        Issuer: C=AT, ST=Austria, L=Linz, O=backstop, OU=SPS, CN=BS/name=SP/emailAddress=SP@gmx.at
        Validity
            Not Before: Oct 24 19:02:47 2010 GMT
            Not After : Oct 21 19:02:47 2020 GMT
        Subject: C=At, ST=Austria, L=Linz, O=backstop, OU=SPS, CN=client2/name=SP/emailAddress=siegelpeter@gmx.at
        Subject Public Key Info:
            Public Key Algorithm: rsaEncryption
            RSA Public Key: (1024 bit)
                Modulus (1024 bit):
                    00:a4:f0:93:cb:4c:c8:b7:99:65:b3:2e:49:50:34:
                    b7:71:e0:23:ed:bd:41:a1:d2:40:0f:6c:64:46:2c:
                    d4:ae:31:88:fd:bb:46:8f:9e:f2:fd:62:c3:d3:85:
                    78:00:b9:7a:65:7d:c2:5c:cd:ae:de:d6:ef:e0:54:
                    89:80:48:04:94:24:d1:87:5f:b0:3e:d2:35:ab:b6:
                    89:e1:9e:ca:81:1c:3d:bf:35:16:83:13:7e:9e:b9:
                    13:c8:80:4c:ea:98:cb:3a:28:be:ba:b1:0e:11:ae:
                    64:ba:c7:c2:4c:79:60:b3:62:96:02:ab:30:ee:f2:
                    0a:fd:c4:c4:02:5b:1e:b5:97
                Exponent: 65537 (0x10001)
        X509v3 extensions:
            X509v3 Basic Constraints: 
                CA:FALSE
            Netscape Comment: 
                Easy-RSA Generated Certificate
            X509v3 Subject Key Identifier: 
                E3:14:D3:D5:C0:7F:5D:42:EF:74:D6:21:2C:29:81:9E:8E:C3:DF:7B
            X509v3 Authority Key Identifier: 
                keyid:E0:B0:B5:82:E0:BC:DD:A9:C2:B7:8C:29:B9:41:74:FF:A0:F5:7D:5F
                DirName:/C=AT/ST=Austria/L=Linz/O=backstop/OU=SPS/CN=BS/name=SP/emailAddress=SP@gmx.at
                serial:C9:E1:96:23:6D:8D:B9:F5

            X509v3 Extended Key Usage: 
                TLS Web Client Authentication
            X509v3 Key Usage: 
                Digital Signature
    Signature Algorithm: sha1WithRSAEncryption
        85:81:d6:30:66:e3:fd:05:35:f9:f4:22:08:e2:0c:5c:63:af:
        39:3a:64:4b:ab:11:d1:7c:c1:62:fc:e1:90:11:db:f3:71:29:
        5e:6b:5e:76:b6:9a:5f:1a:f6:49:44:6b:33:f8:d5:84:e2:6a:
        03:bc:c1:41:38:60:c4:13:44:96:d6:a1:7d:71:e5:55:17:1c:
        44:47:83:25:96:82:ea:7e:17:4a:7f:28:ac:e5:43:f8:dd:a8:
        ef:53:19:a2:cd:ef:ea:d7:c2:36:93:66:c1:c6:20:45:d0:a5:
        e8:d9:c0:0c:d4:bb:01:d0:72:93:fa:b2:74:c2:39:39:c5:40:
        3c:ed
-----BEGIN CERTIFICATE-----
MIIDyDCCAzGgAwIBAgIBAzANBgkqhkiG9w0BAQUFADCBgzELMAkGA1UEBhMCQVQx
EDAOBgNVBAgTB0F1c3RyaWExDTALBgNVBAcTBExpbnoxETAPBgNVBAoTCGJhY2tz
dG9wMQwwCgYDVQQLEwNTUFMxCzAJBgNVBAMTAkJTMQswCQYDVQQpEwJTUDEYMBYG
CSqGSIb3DQEJARYJU1BAZ214LmF0MB4XDTEwMTAyNDE5MDI0N1oXDTIwMTAyMTE5
MDI0N1owgZExCzAJBgNVBAYTAkF0MRAwDgYDVQQIEwdBdXN0cmlhMQ0wCwYDVQQH
EwRMaW56MREwDwYDVQQKEwhiYWNrc3RvcDEMMAoGA1UECxMDU1BTMRAwDgYDVQQD
EwdjbGllbnQyMQswCQYDVQQpEwJTUDEhMB8GCSqGSIb3DQEJARYSc2llZ2VscGV0
ZXJAZ214LmF0MIGfMA0GCSqGSIb3DQEBAQUAA4GNADCBiQKBgQCk8JPLTMi3mWWz
LklQNLdx4CPtvUGh0kAPbGRGLNSuMYj9u0aPnvL9YsPThXgAuXplfcJcza7e1u/g
VImASASUJNGHX7A+0jWrtonhnsqBHD2/NRaDE36euRPIgEzqmMs6KL66sQ4RrmS6
x8JMeWCzYpYCqzDu8gr9xMQCWx61lwIDAQABo4IBOjCCATYwCQYDVR0TBAIwADAt
BglghkgBhvhCAQ0EIBYeRWFzeS1SU0EgR2VuZXJhdGVkIENlcnRpZmljYXRlMB0G
A1UdDgQWBBTjFNPVwH9dQu901iEsKYGejsPfezCBuAYDVR0jBIGwMIGtgBTgsLWC
4LzdqcK3jCm5QXT/oPV9X6GBiaSBhjCBgzELMAkGA1UEBhMCQVQxEDAOBgNVBAgT
B0F1c3RyaWExDTALBgNVBAcTBExpbnoxETAPBgNVBAoTCGJhY2tzdG9wMQwwCgYD
VQQLEwNTUFMxCzAJBgNVBAMTAkJTMQswCQYDVQQpEwJTUDEYMBYGCSqGSIb3DQEJ
ARYJU1BAZ214LmF0ggkAyeGWI22NufUwEwYDVR0lBAwwCgYIKwYBBQUHAwIwCwYD
VR0PBAQDAgeAMA0GCSqGSIb3DQEBBQUAA4GBAIWB1jBm4/0FNfn0IgjiDFxjrzk6
ZEurEdF8wWL84ZAR2/NxKV5rXna2ml8a9klEazP41YTiagO8wUE4YMQTRJbWoX1x
5VUXHERHgyWWgup+F0p/KKzlQ/jdqO9TGaLN7+rXwjaTZsHGIEXQpejZwAzUuwHQ
cpP6snTCOTnFQDzt
-----END CERTIFICATE-----
