Certificate:
    Data:
        Version: 3 (0x2)
        Serial Number: 4 (0x4)
        Signature Algorithm: sha1WithRSAEncryption
        Issuer: C=AT, ST=Austria, L=Linz, O=backstop, OU=SPS, CN=BS/name=SP/emailAddress=SP@gmx.at
        Validity
            Not Before: Oct 24 19:03:38 2010 GMT
            Not After : Oct 21 19:03:38 2020 GMT
        Subject: C=AT, ST=Austria, L=Linz, O=backstop, OU=SPS, CN=client3/name=SP/emailAddress=siegelpeter@gmx.at
        Subject Public Key Info:
            Public Key Algorithm: rsaEncryption
            RSA Public Key: (1024 bit)
                Modulus (1024 bit):
                    00:e8:b7:1c:e5:f3:b1:e1:f4:3e:b3:20:23:fb:5b:
                    18:70:f4:bd:cf:1d:82:5d:f9:b3:b2:fa:2f:8e:c0:
                    18:df:22:e7:d7:a9:8b:dd:33:e1:81:60:85:18:f0:
                    c5:48:ec:d1:91:ae:64:3f:2a:08:6f:ec:b5:ad:70:
                    d6:40:8e:e0:ff:25:18:91:45:2a:58:5b:65:d0:23:
                    29:1f:f1:88:7b:f1:38:14:eb:ce:d0:d3:c8:40:9e:
                    28:36:da:6a:d6:d4:78:c1:ba:c8:a7:ec:2e:f7:15:
                    38:b8:9e:2b:5c:8c:08:25:14:e4:d9:7b:b8:39:99:
                    fe:48:f3:ad:60:d4:40:0d:39
                Exponent: 65537 (0x10001)
        X509v3 extensions:
            X509v3 Basic Constraints: 
                CA:FALSE
            Netscape Comment: 
                Easy-RSA Generated Certificate
            X509v3 Subject Key Identifier: 
                DB:3B:66:B4:DB:4B:4C:2A:E9:67:EB:55:06:6C:E2:17:F6:01:B9:AF
            X509v3 Authority Key Identifier: 
                keyid:E0:B0:B5:82:E0:BC:DD:A9:C2:B7:8C:29:B9:41:74:FF:A0:F5:7D:5F
                DirName:/C=AT/ST=Austria/L=Linz/O=backstop/OU=SPS/CN=BS/name=SP/emailAddress=SP@gmx.at
                serial:C9:E1:96:23:6D:8D:B9:F5

            X509v3 Extended Key Usage: 
                TLS Web Client Authentication
            X509v3 Key Usage: 
                Digital Signature
    Signature Algorithm: sha1WithRSAEncryption
        03:9a:42:cd:3a:27:d8:16:f4:b1:30:0f:82:82:ee:62:11:8d:
        14:6c:00:01:af:ff:ba:28:64:73:c5:c0:cb:3d:60:c1:4d:ab:
        55:14:24:76:6c:82:52:cb:45:a4:28:84:1b:e3:8a:de:05:aa:
        fb:dc:3f:b1:c9:66:ca:0f:2c:0e:1f:4a:ef:10:2f:94:82:43:
        a1:72:1d:b3:86:63:c5:f7:c0:b9:72:7e:61:02:c7:c8:7d:6e:
        d3:6d:71:51:2b:0c:c6:70:bc:22:3d:7c:96:b6:63:2f:36:2e:
        11:15:f9:12:c3:4d:eb:7d:fa:60:7e:a5:b1:c8:02:33:6d:bd:
        12:10
-----BEGIN CERTIFICATE-----
MIIDyDCCAzGgAwIBAgIBBDANBgkqhkiG9w0BAQUFADCBgzELMAkGA1UEBhMCQVQx
EDAOBgNVBAgTB0F1c3RyaWExDTALBgNVBAcTBExpbnoxETAPBgNVBAoTCGJhY2tz
dG9wMQwwCgYDVQQLEwNTUFMxCzAJBgNVBAMTAkJTMQswCQYDVQQpEwJTUDEYMBYG
CSqGSIb3DQEJARYJU1BAZ214LmF0MB4XDTEwMTAyNDE5MDMzOFoXDTIwMTAyMTE5
MDMzOFowgZExCzAJBgNVBAYTAkFUMRAwDgYDVQQIEwdBdXN0cmlhMQ0wCwYDVQQH
EwRMaW56MREwDwYDVQQKEwhiYWNrc3RvcDEMMAoGA1UECxMDU1BTMRAwDgYDVQQD
EwdjbGllbnQzMQswCQYDVQQpEwJTUDEhMB8GCSqGSIb3DQEJARYSc2llZ2VscGV0
ZXJAZ214LmF0MIGfMA0GCSqGSIb3DQEBAQUAA4GNADCBiQKBgQDotxzl87Hh9D6z
ICP7Wxhw9L3PHYJd+bOy+i+OwBjfIufXqYvdM+GBYIUY8MVI7NGRrmQ/Kghv7LWt
cNZAjuD/JRiRRSpYW2XQIykf8Yh78TgU687Q08hAnig22mrW1HjBusin7C73FTi4
nitcjAglFOTZe7g5mf5I861g1EANOQIDAQABo4IBOjCCATYwCQYDVR0TBAIwADAt
BglghkgBhvhCAQ0EIBYeRWFzeS1SU0EgR2VuZXJhdGVkIENlcnRpZmljYXRlMB0G
A1UdDgQWBBTbO2a020tMKuln61UGbOIX9gG5rzCBuAYDVR0jBIGwMIGtgBTgsLWC
4LzdqcK3jCm5QXT/oPV9X6GBiaSBhjCBgzELMAkGA1UEBhMCQVQxEDAOBgNVBAgT
B0F1c3RyaWExDTALBgNVBAcTBExpbnoxETAPBgNVBAoTCGJhY2tzdG9wMQwwCgYD
VQQLEwNTUFMxCzAJBgNVBAMTAkJTMQswCQYDVQQpEwJTUDEYMBYGCSqGSIb3DQEJ
ARYJU1BAZ214LmF0ggkAyeGWI22NufUwEwYDVR0lBAwwCgYIKwYBBQUHAwIwCwYD
VR0PBAQDAgeAMA0GCSqGSIb3DQEBBQUAA4GBAAOaQs06J9gW9LEwD4KC7mIRjRRs
AAGv/7ooZHPFwMs9YMFNq1UUJHZsglLLRaQohBvjit4FqvvcP7HJZsoPLA4fSu8Q
L5SCQ6FyHbOGY8X3wLlyfmECx8h9btNtcVErDMZwvCI9fJa2Yy82LhEV+RLDTet9
+mB+pbHIAjNtvRIQ
-----END CERTIFICATE-----
