Certificate:
    Data:
        Version: 3 (0x2)
        Serial Number: 5 (0x5)
        Signature Algorithm: sha1WithRSAEncryption
        Issuer: C=AT, ST=Austria, L=Linz, O=backstop, OU=SPS, CN=BS/name=SP/emailAddress=SP@gmx.at
        Validity
            Not Before: Oct 24 19:04:37 2010 GMT
            Not After : Oct 21 19:04:37 2020 GMT
        Subject: C=AT, ST=Austria, L=Linz, O=Backstop, OU=SPS, CN=client4/name=SP/emailAddress=siegelpeter@gmx.at
        Subject Public Key Info:
            Public Key Algorithm: rsaEncryption
            RSA Public Key: (1024 bit)
                Modulus (1024 bit):
                    00:c1:91:c6:6c:56:c7:94:47:98:97:b3:50:dc:8b:
                    a2:6f:35:4b:6c:8a:91:cd:32:ba:a0:2f:61:63:64:
                    6a:06:6d:80:9e:7d:c2:a0:06:e6:90:ea:59:a9:88:
                    9d:ec:9c:00:d1:0e:db:c5:6b:e8:54:93:7c:97:c6:
                    40:e8:de:b0:69:8b:53:63:bd:73:96:0f:00:48:70:
                    bc:c0:45:fc:ee:b5:52:c9:fa:d1:c8:08:86:89:f6:
                    57:91:4a:25:8e:c9:1e:fb:ef:a0:22:a5:70:4e:46:
                    c8:5a:9a:0c:a8:e0:ca:08:96:85:cb:f3:68:42:78:
                    31:5a:4a:98:f8:00:e6:46:9d
                Exponent: 65537 (0x10001)
        X509v3 extensions:
            X509v3 Basic Constraints: 
                CA:FALSE
            Netscape Comment: 
                Easy-RSA Generated Certificate
            X509v3 Subject Key Identifier: 
                E5:CD:A0:BA:8E:44:65:E6:D7:F8:AC:B6:98:EB:8E:FF:80:9B:0F:14
            X509v3 Authority Key Identifier: 
                keyid:E0:B0:B5:82:E0:BC:DD:A9:C2:B7:8C:29:B9:41:74:FF:A0:F5:7D:5F
                DirName:/C=AT/ST=Austria/L=Linz/O=backstop/OU=SPS/CN=BS/name=SP/emailAddress=SP@gmx.at
                serial:C9:E1:96:23:6D:8D:B9:F5

            X509v3 Extended Key Usage: 
                TLS Web Client Authentication
            X509v3 Key Usage: 
                Digital Signature
    Signature Algorithm: sha1WithRSAEncryption
        42:bb:00:ba:0f:c3:24:9b:ad:f9:9e:48:d3:55:a8:62:0c:48:
        be:16:a3:c9:ad:7a:e2:fb:dc:30:f5:17:13:e3:48:bc:2f:49:
        88:1d:1b:a5:7e:9d:05:b3:42:a1:92:c2:78:43:2e:dc:c7:e5:
        84:18:45:d3:65:b0:a1:43:1f:bb:7a:27:11:3c:ab:1a:1d:7e:
        ad:db:7e:0e:79:86:59:9f:3d:bb:ed:4e:71:6d:cf:d0:a2:af:
        cc:f8:4c:17:e2:93:b0:d7:e7:8d:e0:f8:6c:a2:12:a1:ba:5a:
        e7:5c:e7:43:e8:9e:ab:ba:fc:75:88:4e:e8:6d:a9:e0:80:d6:
        c1:c9
-----BEGIN CERTIFICATE-----
MIIDyDCCAzGgAwIBAgIBBTANBgkqhkiG9w0BAQUFADCBgzELMAkGA1UEBhMCQVQx
EDAOBgNVBAgTB0F1c3RyaWExDTALBgNVBAcTBExpbnoxETAPBgNVBAoTCGJhY2tz
dG9wMQwwCgYDVQQLEwNTUFMxCzAJBgNVBAMTAkJTMQswCQYDVQQpEwJTUDEYMBYG
CSqGSIb3DQEJARYJU1BAZ214LmF0MB4XDTEwMTAyNDE5MDQzN1oXDTIwMTAyMTE5
MDQzN1owgZExCzAJBgNVBAYTAkFUMRAwDgYDVQQIEwdBdXN0cmlhMQ0wCwYDVQQH
EwRMaW56MREwDwYDVQQKEwhCYWNrc3RvcDEMMAoGA1UECxMDU1BTMRAwDgYDVQQD
EwdjbGllbnQ0MQswCQYDVQQpEwJTUDEhMB8GCSqGSIb3DQEJARYSc2llZ2VscGV0
ZXJAZ214LmF0MIGfMA0GCSqGSIb3DQEBAQUAA4GNADCBiQKBgQDBkcZsVseUR5iX
s1Dci6JvNUtsipHNMrqgL2FjZGoGbYCefcKgBuaQ6lmpiJ3snADRDtvFa+hUk3yX
xkDo3rBpi1NjvXOWDwBIcLzARfzutVLJ+tHICIaJ9leRSiWOyR7776AipXBORsha
mgyo4MoIloXL82hCeDFaSpj4AOZGnQIDAQABo4IBOjCCATYwCQYDVR0TBAIwADAt
BglghkgBhvhCAQ0EIBYeRWFzeS1SU0EgR2VuZXJhdGVkIENlcnRpZmljYXRlMB0G
A1UdDgQWBBTlzaC6jkRl5tf4rLaY647/gJsPFDCBuAYDVR0jBIGwMIGtgBTgsLWC
4LzdqcK3jCm5QXT/oPV9X6GBiaSBhjCBgzELMAkGA1UEBhMCQVQxEDAOBgNVBAgT
B0F1c3RyaWExDTALBgNVBAcTBExpbnoxETAPBgNVBAoTCGJhY2tzdG9wMQwwCgYD
VQQLEwNTUFMxCzAJBgNVBAMTAkJTMQswCQYDVQQpEwJTUDEYMBYGCSqGSIb3DQEJ
ARYJU1BAZ214LmF0ggkAyeGWI22NufUwEwYDVR0lBAwwCgYIKwYBBQUHAwIwCwYD
VR0PBAQDAgeAMA0GCSqGSIb3DQEBBQUAA4GBAEK7ALoPwySbrfmeSNNVqGIMSL4W
o8mteuL73DD1FxPjSLwvSYgdG6V+nQWzQqGSwnhDLtzH5YQYRdNlsKFDH7t6JxE8
qxodfq3bfg55hlmfPbvtTnFtz9Cir8z4TBfik7DX543g+GyiEqG6Wudc50Ponqu6
/HWITuhtqeCA1sHJ
-----END CERTIFICATE-----
